target datalayout = "e-m:e-p270:32:32-p271:32:32-p272:64:64-i64:64-i128:128-f80:128-n8:16:32:64-S128"
target triple = "x86_64-pc-linux-gnu"

%"class.icu_77::number::impl::StringProp" = type { ptr, i16, i32 }

; Function Attrs: mustprogress nounwind uwtable
define noundef nonnull align 8 dereferenceable(16) ptr @_ZN6icu_776number4impl10StringPropaSEOS2_(ptr noundef nonnull align 8 dereferenceable(16) %0, ptr noundef nonnull align 8 dereferenceable(16) %1) #0 align 2 personality ptr @__gxx_personality_v0 {
  %3 = alloca ptr, align 8
  %4 = alloca ptr, align 8
  %5 = alloca ptr, align 8
  store ptr %0, ptr %4, align 8, !tbaa !23
  store ptr %1, ptr %5, align 8, !tbaa !23
  %6 = load ptr, ptr %4, align 8
  %7 = load ptr, ptr %5, align 8, !tbaa !23
  %8 = icmp eq ptr %6, %7
  br i1 %8, label %9, label %10

9:                                                ; preds = %2
  store ptr %6, ptr %3, align 8
  br label %33

10:                                               ; preds = %2
  %11 = getelementptr inbounds nuw %"class.icu_77::number::impl::StringProp", ptr %6, i32 0, i32 0
  %12 = load ptr, ptr %11, align 8, !tbaa !25
  %13 = icmp ne ptr %12, null
  br i1 %13, label %14, label %18

14:                                               ; preds = %10
  %15 = getelementptr inbounds nuw %"class.icu_77::number::impl::StringProp", ptr %6, i32 0, i32 0
  %16 = load ptr, ptr %15, align 8, !tbaa !25
  invoke void @uprv_free_77(ptr noundef %16)
          to label %17 unwind label %35

17:                                               ; preds = %14
  br label %18

18:                                               ; preds = %17, %10
  %19 = load ptr, ptr %5, align 8, !tbaa !23
  %20 = getelementptr inbounds nuw %"class.icu_77::number::impl::StringProp", ptr %19, i32 0, i32 0
  %21 = load ptr, ptr %20, align 8, !tbaa !25
  %22 = getelementptr inbounds nuw %"class.icu_77::number::impl::StringProp", ptr %6, i32 0, i32 0
  store ptr %21, ptr %22, align 8, !tbaa !25
  %23 = load ptr, ptr %5, align 8, !tbaa !23
  %24 = getelementptr inbounds nuw %"class.icu_77::number::impl::StringProp", ptr %23, i32 0, i32 1
  %25 = load i16, ptr %24, align 8, !tbaa !28
  %26 = getelementptr inbounds nuw %"class.icu_77::number::impl::StringProp", ptr %6, i32 0, i32 1
  store i16 %25, ptr %26, align 8, !tbaa !28
  %27 = load ptr, ptr %5, align 8, !tbaa !23
  %28 = getelementptr inbounds nuw %"class.icu_77::number::impl::StringProp", ptr %27, i32 0, i32 2
  %29 = load i32, ptr %28, align 4, !tbaa !29
  %30 = getelementptr inbounds nuw %"class.icu_77::number::impl::StringProp", ptr %6, i32 0, i32 2
  store i32 %29, ptr %30, align 4, !tbaa !29
  %31 = load ptr, ptr %5, align 8, !tbaa !23
  %32 = getelementptr inbounds nuw %"class.icu_77::number::impl::StringProp", ptr %31, i32 0, i32 0
  store ptr null, ptr %32, align 8, !tbaa !25
  store ptr %6, ptr %3, align 8
  br label %33

33:                                               ; preds = %18, %9
  %34 = load ptr, ptr %3, align 8
  ret ptr %34

35:                                               ; preds = %14
  %36 = landingpad { ptr, i32 }
          catch ptr null
  %37 = extractvalue { ptr, i32 } %36, 0
  call void @__clang_call_terminate(ptr %37) #14
  unreachable
}