; Function Attrs: mustprogress nounwind uwtable
define noundef nonnull align 8 dereferenceable(16) ptr @_ZN6icu_776number4impl10StringPropaSEOS2_(ptr noundef nonnull returned align 8 dereferenceable(16) %0, ptr noundef nonnull align 8 dereferenceable(16) %1) local_unnamed_addr #0 align 2 personality ptr @__gxx_personality_v0 {
  %3 = icmp eq ptr %0, %1
  br i1 %3, label %15, label %4

4:                                                ; preds = %2
  %5 = load ptr, ptr %0, align 8, !tbaa !15
  %.not = icmp eq ptr %5, null
  br i1 %.not, label %7, label %6

6:                                                ; preds = %4
  invoke void @uprv_free_77(ptr noundef nonnull %5)
          to label %7 unwind label %16

7:                                                ; preds = %6, %4
  %8 = load ptr, ptr %1, align 8, !tbaa !15
  store ptr %8, ptr %0, align 8, !tbaa !15
  %9 = getelementptr inbounds nuw i8, ptr %1, i64 8
  %10 = load i16, ptr %9, align 8, !tbaa !18
  %11 = getelementptr inbounds nuw i8, ptr %0, i64 8
  store i16 %10, ptr %11, align 8, !tbaa !18
  %12 = getelementptr inbounds nuw i8, ptr %1, i64 12
  %13 = load i32, ptr %12, align 4, !tbaa !19
  %14 = getelementptr inbounds nuw i8, ptr %0, i64 12
  store i32 %13, ptr %14, align 4, !tbaa !19
  store ptr null, ptr %1, align 8, !tbaa !15
  br label %15

15:                                               ; preds = %2, %7
  ret ptr %0

16:                                               ; preds = %6
  %17 = landingpad { ptr, i32 }
          catch ptr null
  %18 = extractvalue { ptr, i32 } %17, 0
  tail call void @__clang_call_terminate(ptr %18) #17
  unreachable
}